target datalayout = "e-m:e-p270:32:32-p271:32:32-p272:64:64-i64:64-i128:128-f80:128-n8:16:32:64-S128"
target triple = "x86_64-pc-linux-gnu"

%"struct.faiss::IndexFlatCodes" = type { %"struct.faiss::Index.base", i64, %"class.std::vector" }
%"struct.faiss::Index.base" = type <{ ptr, i32, [4 x i8], i64, i8, i8, [2 x i8], i32, float }>
%"class.std::vector" = type { %"struct.std::_Vector_base" }
%"struct.std::_Vector_base" = type { %"struct.std::_Vector_base<unsigned char, std::allocator<unsigned char>>::_Vector_impl" }
%"struct.std::_Vector_base<unsigned char, std::allocator<unsigned char>>::_Vector_impl" = type { %"struct.std::_Vector_base<unsigned char, std::allocator<unsigned char>>::_Vector_impl_data" }
%"struct.std::_Vector_base<unsigned char, std::allocator<unsigned char>>::_Vector_impl_data" = type { ptr, ptr, ptr }
%"struct.faiss::Index" = type <{ ptr, i32, [4 x i8], i64, i8, i8, [2 x i8], i32, float, [4 x i8] }>
%"struct.faiss::(anonymous namespace)::FlatL2Dis" = type { %"struct.faiss::FlatCodesDistanceComputer", i64, i64, ptr, ptr, i64 }
%"struct.faiss::FlatCodesDistanceComputer" = type { %"struct.faiss::DistanceComputer", ptr, i64 }
%"struct.faiss::DistanceComputer" = type { ptr }
%"struct.faiss::(anonymous namespace)::FlatIPDis" = type { %"struct.faiss::FlatCodesDistanceComputer", i64, i64, ptr, ptr, i64 }

; Function Attrs: inlinehint mustprogress nounwind uwtable
define linkonce_odr void @_ZN5faiss16DistanceComputerC2Ev(ptr noundef nonnull align 8 dereferenceable(8) %0) unnamed_addr #0 comdat align 2 {
  %2 = alloca ptr, align 8
  store ptr %0, ptr %2, align 8, !tbaa !122
  %3 = load ptr, ptr %2, align 8
  store ptr getelementptr inbounds inrange(-16, 48) ({ [8 x ptr] }, ptr @_ZTVN5faiss16DistanceComputerE, i32 0, i32 0, i32 2), ptr %3, align 8, !tbaa !9
  ret void
}

; Function Attrs: mustprogress nounwind uwtable
define linkonce_odr noundef ptr @_ZNKSt6vectorIhSaIhEE11_M_data_ptrIhEEPT_S4_(ptr noundef nonnull align 8 dereferenceable(24) %0, ptr noundef %1) #3 comdat align 2 {
  %3 = alloca ptr, align 8
  %4 = alloca ptr, align 8
  store ptr %0, ptr %3, align 8, !tbaa !91
  store ptr %1, ptr %4, align 8, !tbaa !55
  %5 = load ptr, ptr %4, align 8, !tbaa !55
  ret ptr %5
}

; Function Attrs: mustprogress nounwind uwtable
define linkonce_odr void @_ZN5faiss25FlatCodesDistanceComputerC2EPKhm(ptr noundef nonnull align 8 dereferenceable(24) %0, ptr noundef %1, i64 noundef %2) unnamed_addr #3 comdat align 2 {
  %4 = alloca ptr, align 8
  %5 = alloca ptr, align 8
  %6 = alloca i64, align 8
  store ptr %0, ptr %4, align 8, !tbaa !118
  store ptr %1, ptr %5, align 8, !tbaa !55
  store i64 %2, ptr %6, align 8, !tbaa !13
  %7 = load ptr, ptr %4, align 8
  call void @_ZN5faiss16DistanceComputerC2Ev(ptr noundef nonnull align 8 dereferenceable(8) %7) #18
  store ptr getelementptr inbounds inrange(-16, 56) ({ [9 x ptr] }, ptr @_ZTVN5faiss25FlatCodesDistanceComputerE, i32 0, i32 0, i32 2), ptr %7, align 8, !tbaa !9
  %8 = getelementptr inbounds nuw %"struct.faiss::FlatCodesDistanceComputer", ptr %7, i32 0, i32 1
  %9 = load ptr, ptr %5, align 8, !tbaa !55
  store ptr %9, ptr %8, align 8, !tbaa !120
  %10 = getelementptr inbounds nuw %"struct.faiss::FlatCodesDistanceComputer", ptr %7, i32 0, i32 2
  %11 = load i64, ptr %6, align 8, !tbaa !13
  store i64 %11, ptr %10, align 8, !tbaa !121
  ret void
}

; Function Attrs: mustprogress nounwind uwtable
define linkonce_odr noundef ptr @_ZNKSt6vectorIhSaIhEE4dataEv(ptr noundef nonnull align 8 dereferenceable(24) %0) #3 comdat align 2 {
  %2 = alloca ptr, align 8
  store ptr %0, ptr %2, align 8, !tbaa !91
  %3 = load ptr, ptr %2, align 8
  %4 = getelementptr inbounds nuw %"struct.std::_Vector_base", ptr %3, i32 0, i32 0
  %5 = getelementptr inbounds nuw %"struct.std::_Vector_base<unsigned char, std::allocator<unsigned char>>::_Vector_impl_data", ptr %4, i32 0, i32 0
  %6 = load ptr, ptr %5, align 8, !tbaa !93
  %7 = call noundef ptr @_ZNKSt6vectorIhSaIhEE11_M_data_ptrIhEEPT_S4_(ptr noundef nonnull align 8 dereferenceable(24) %3, ptr noundef %6) #18
  ret ptr %7
}

; Function Attrs: mustprogress nounwind uwtable
define linkonce_odr noundef ptr @_ZNK5faiss9IndexFlat6get_xbEv(ptr noundef nonnull align 8 dereferenceable(72) %0) #3 comdat align 2 {
  %2 = alloca ptr, align 8
  store ptr %0, ptr %2, align 8, !tbaa !11
  %3 = load ptr, ptr %2, align 8
  %4 = getelementptr inbounds nuw %"struct.faiss::IndexFlatCodes", ptr %3, i32 0, i32 2
  %5 = call noundef ptr @_ZNKSt6vectorIhSaIhEE4dataEv(ptr noundef nonnull align 8 dereferenceable(24) %4) #18
  ret ptr %5
}

; Function Attrs: mustprogress nounwind uwtable
define internal void @_ZN5faiss12_GLOBAL__N_19FlatIPDisC2ERKNS_9IndexFlatEPKf(ptr noundef nonnull align 8 dereferenceable(64) %0, ptr noundef nonnull align 8 dereferenceable(72) %1, ptr noundef %2) unnamed_addr #3 align 2 {
  %4 = alloca ptr, align 8
  %5 = alloca ptr, align 8
  %6 = alloca ptr, align 8
  store ptr %0, ptr %4, align 8, !tbaa !110
  store ptr %1, ptr %5, align 8, !tbaa !11
  store ptr %2, ptr %6, align 8, !tbaa !15
  %7 = load ptr, ptr %4, align 8
  %8 = load ptr, ptr %5, align 8, !tbaa !11
  %9 = getelementptr inbounds nuw %"struct.faiss::IndexFlatCodes", ptr %8, i32 0, i32 2
  %10 = call noundef ptr @_ZNKSt6vectorIhSaIhEE4dataEv(ptr noundef nonnull align 8 dereferenceable(24) %9) #18
  %11 = load ptr, ptr %5, align 8, !tbaa !11
  %12 = getelementptr inbounds nuw %"struct.faiss::IndexFlatCodes", ptr %11, i32 0, i32 1
  %13 = load i64, ptr %12, align 8, !tbaa !48
  call void @_ZN5faiss25FlatCodesDistanceComputerC2EPKhm(ptr noundef nonnull align 8 dereferenceable(24) %7, ptr noundef %10, i64 noundef %13)
  store ptr getelementptr inbounds inrange(-16, 56) ({ [9 x ptr] }, ptr @_ZTVN5faiss12_GLOBAL__N_19FlatIPDisE, i32 0, i32 0, i32 2), ptr %7, align 8, !tbaa !9
  %14 = getelementptr inbounds nuw %"struct.faiss::(anonymous namespace)::FlatIPDis", ptr %7, i32 0, i32 1
  %15 = load ptr, ptr %5, align 8, !tbaa !11
  %16 = getelementptr inbounds nuw %"struct.faiss::Index", ptr %15, i32 0, i32 1
  %17 = load i32, ptr %16, align 8, !tbaa !37
  %18 = sext i32 %17 to i64
  store i64 %18, ptr %14, align 8, !tbaa !112
  %19 = getelementptr inbounds nuw %"struct.faiss::(anonymous namespace)::FlatIPDis", ptr %7, i32 0, i32 2
  %20 = load ptr, ptr %5, align 8, !tbaa !11
  %21 = getelementptr inbounds nuw %"struct.faiss::Index", ptr %20, i32 0, i32 3
  %22 = load i64, ptr %21, align 8, !tbaa !38
  store i64 %22, ptr %19, align 8, !tbaa !114
  %23 = getelementptr inbounds nuw %"struct.faiss::(anonymous namespace)::FlatIPDis", ptr %7, i32 0, i32 3
  %24 = load ptr, ptr %6, align 8, !tbaa !15
  store ptr %24, ptr %23, align 8, !tbaa !115
  %25 = getelementptr inbounds nuw %"struct.faiss::(anonymous namespace)::FlatIPDis", ptr %7, i32 0, i32 4
  %26 = load ptr, ptr %5, align 8, !tbaa !11
  %27 = call noundef ptr @_ZNK5faiss9IndexFlat6get_xbEv(ptr noundef nonnull align 8 dereferenceable(72) %26)
  store ptr %27, ptr %25, align 8, !tbaa !116
  %28 = getelementptr inbounds nuw %"struct.faiss::(anonymous namespace)::FlatIPDis", ptr %7, i32 0, i32 5
  store i64 0, ptr %28, align 8, !tbaa !117
  ret void
}

; Function Attrs: mustprogress uwtable
define internal void @_ZN5faiss12_GLOBAL__N_19FlatL2DisC2ERKNS_9IndexFlatEPKf(ptr noundef nonnull align 8 dereferenceable(64) %0, ptr noundef nonnull align 8 dereferenceable(72) %1, ptr noundef %2) unnamed_addr #2 align 2 {
  %4 = alloca ptr, align 8
  %5 = alloca ptr, align 8
  %6 = alloca ptr, align 8
  store ptr %0, ptr %4, align 8, !tbaa !100
  store ptr %1, ptr %5, align 8, !tbaa !11
  store ptr %2, ptr %6, align 8, !tbaa !15
  %7 = load ptr, ptr %4, align 8
  %8 = load ptr, ptr %5, align 8, !tbaa !11
  %9 = getelementptr inbounds nuw %"struct.faiss::IndexFlatCodes", ptr %8, i32 0, i32 2
  %10 = call noundef ptr @_ZNKSt6vectorIhSaIhEE4dataEv(ptr noundef nonnull align 8 dereferenceable(24) %9) #18
  %11 = load ptr, ptr %5, align 8, !tbaa !11
  %12 = getelementptr inbounds nuw %"struct.faiss::IndexFlatCodes", ptr %11, i32 0, i32 1
  %13 = load i64, ptr %12, align 8, !tbaa !48
  call void @_ZN5faiss25FlatCodesDistanceComputerC2EPKhm(ptr noundef nonnull align 8 dereferenceable(24) %7, ptr noundef %10, i64 noundef %13)
  store ptr getelementptr inbounds inrange(-16, 56) ({ [9 x ptr] }, ptr @_ZTVN5faiss12_GLOBAL__N_19FlatL2DisE, i32 0, i32 0, i32 2), ptr %7, align 8, !tbaa !9
  %14 = getelementptr inbounds nuw %"struct.faiss::(anonymous namespace)::FlatL2Dis", ptr %7, i32 0, i32 1
  %15 = load ptr, ptr %5, align 8, !tbaa !11
  %16 = getelementptr inbounds nuw %"struct.faiss::Index", ptr %15, i32 0, i32 1
  %17 = load i32, ptr %16, align 8, !tbaa !37
  %18 = sext i32 %17 to i64
  store i64 %18, ptr %14, align 8, !tbaa !102
  %19 = getelementptr inbounds nuw %"struct.faiss::(anonymous namespace)::FlatL2Dis", ptr %7, i32 0, i32 2
  %20 = load ptr, ptr %5, align 8, !tbaa !11
  %21 = getelementptr inbounds nuw %"struct.faiss::Index", ptr %20, i32 0, i32 3
  %22 = load i64, ptr %21, align 8, !tbaa !38
  store i64 %22, ptr %19, align 8, !tbaa !106
  %23 = getelementptr inbounds nuw %"struct.faiss::(anonymous namespace)::FlatL2Dis", ptr %7, i32 0, i32 3
  %24 = load ptr, ptr %6, align 8, !tbaa !15
  store ptr %24, ptr %23, align 8, !tbaa !107
  %25 = getelementptr inbounds nuw %"struct.faiss::(anonymous namespace)::FlatL2Dis", ptr %7, i32 0, i32 4
  %26 = load ptr, ptr %5, align 8, !tbaa !11
  %27 = call noundef ptr @_ZNK5faiss9IndexFlat6get_xbEv(ptr noundef nonnull align 8 dereferenceable(72) %26)
  store ptr %27, ptr %25, align 8, !tbaa !108
  %28 = getelementptr inbounds nuw %"struct.faiss::(anonymous namespace)::FlatL2Dis", ptr %7, i32 0, i32 5
  store i64 0, ptr %28, align 8, !tbaa !109
  ret void
}

; Function Attrs: mustprogress uwtable
define noundef ptr @_ZNK5faiss9IndexFlat29get_FlatCodesDistanceComputerEv(ptr noundef nonnull align 8 dereferenceable(72) %0) unnamed_addr #2 align 2 personality ptr @__gxx_personality_v0 {
  %2 = alloca ptr, align 8
  %3 = alloca ptr, align 8
  %4 = alloca ptr, align 8
  %5 = alloca i32, align 4
  store ptr %0, ptr %3, align 8, !tbaa !11
  %6 = load ptr, ptr %3, align 8
  %7 = getelementptr inbounds nuw %"struct.faiss::Index", ptr %6, i32 0, i32 7
  %8 = load i32, ptr %7, align 4, !tbaa !27
  %9 = icmp eq i32 %8, 1
  br i1 %9, label %10, label %17

10:                                               ; preds = %1
  %11 = call noalias noundef nonnull ptr @_Znwm(i64 noundef 64) #21
  invoke void @_ZN5faiss12_GLOBAL__N_19FlatL2DisC2ERKNS_9IndexFlatEPKf(ptr noundef nonnull align 8 dereferenceable(64) %11, ptr noundef nonnull align 8 dereferenceable(72) %6, ptr noundef null)
          to label %12 unwind label %13

12:                                               ; preds = %10
  store ptr %11, ptr %2, align 8
  br label %40

13:                                               ; preds = %10
  %14 = landingpad { ptr, i32 }
          cleanup
  %15 = extractvalue { ptr, i32 } %14, 0
  store ptr %15, ptr %4, align 8
  %16 = extractvalue { ptr, i32 } %14, 1
  store i32 %16, ptr %5, align 4
  call void @_ZdlPvm(ptr noundef %11, i64 noundef 64) #19
  br label %42

17:                                               ; preds = %1
  %18 = getelementptr inbounds nuw %"struct.faiss::Index", ptr %6, i32 0, i32 7
  %19 = load i32, ptr %18, align 4, !tbaa !27
  %20 = icmp eq i32 %19, 0
  br i1 %20, label %21, label %28

21:                                               ; preds = %17
  %22 = call noalias noundef nonnull ptr @_Znwm(i64 noundef 64) #21
  invoke void @_ZN5faiss12_GLOBAL__N_19FlatIPDisC2ERKNS_9IndexFlatEPKf(ptr noundef nonnull align 8 dereferenceable(64) %22, ptr noundef nonnull align 8 dereferenceable(72) %6, ptr noundef null)
          to label %23 unwind label %24

23:                                               ; preds = %21
  store ptr %22, ptr %2, align 8
  br label %40

24:                                               ; preds = %21
  %25 = landingpad { ptr, i32 }
          cleanup
  %26 = extractvalue { ptr, i32 } %25, 0
  store ptr %26, ptr %4, align 8
  %27 = extractvalue { ptr, i32 } %25, 1
  store i32 %27, ptr %5, align 4
  call void @_ZdlPvm(ptr noundef %22, i64 noundef 64) #19
  br label %42

28:                                               ; preds = %17
  %29 = getelementptr inbounds nuw %"struct.faiss::Index", ptr %6, i32 0, i32 1
  %30 = load i32, ptr %29, align 8, !tbaa !37
  %31 = sext i32 %30 to i64
  %32 = getelementptr inbounds nuw %"struct.faiss::Index", ptr %6, i32 0, i32 7
  %33 = load i32, ptr %32, align 4, !tbaa !27
  %34 = getelementptr inbounds nuw %"struct.faiss::Index", ptr %6, i32 0, i32 8
  %35 = load float, ptr %34, align 8, !tbaa !44
  %36 = getelementptr inbounds nuw %"struct.faiss::Index", ptr %6, i32 0, i32 3
  %37 = load i64, ptr %36, align 8, !tbaa !38
  %38 = call noundef ptr @_ZNK5faiss9IndexFlat6get_xbEv(ptr noundef nonnull align 8 dereferenceable(72) %6)
  %39 = call noundef ptr @_ZN5faiss27get_extra_distance_computerEmNS_10MetricTypeEfmPKf(i64 noundef %31, i32 noundef %33, float noundef %35, i64 noundef %37, ptr noundef %38)
  store ptr %39, ptr %2, align 8
  br label %40

40:                                               ; preds = %28, %23, %12
  %41 = load ptr, ptr %2, align 8
  ret ptr %41

42:                                               ; preds = %24, %13
  %43 = load ptr, ptr %4, align 8
  %44 = load i32, ptr %5, align 4
  %45 = insertvalue { ptr, i32 } poison, ptr %43, 0
  %46 = insertvalue { ptr, i32 } %45, i32 %44, 1
  resume { ptr, i32 } %46
}