; Function Attrs: mustprogress uwtable
define noundef ptr @_ZNK5faiss9IndexFlat29get_FlatCodesDistanceComputerEv(ptr noundef nonnull readonly align 8 captures(none) dereferenceable(72) %0) unnamed_addr #2 align 2 personality ptr @__gxx_personality_v0 {
  %2 = getelementptr inbounds nuw i8, ptr %0, i64 28
  %3 = load i32, ptr %2, align 4, !tbaa !23
  switch i32 %3, label %40 [
    i32 1, label %4
    i32 0, label %22
  ]

4:                                                ; preds = %1
  %5 = tail call noalias noundef nonnull dereferenceable(64) ptr @_Znwm(i64 noundef 64) #27
  %6 = getelementptr inbounds nuw i8, ptr %0, i64 48
  %7 = load ptr, ptr %6, align 8, !tbaa !7
  %8 = getelementptr inbounds nuw i8, ptr %0, i64 40
  %9 = load i64, ptr %8, align 8, !tbaa !44
  %10 = getelementptr inbounds nuw i8, ptr %5, i64 8
  store ptr %7, ptr %10, align 8, !tbaa !49
  %11 = getelementptr inbounds nuw i8, ptr %5, i64 16
  store i64 %9, ptr %11, align 8, !tbaa !52
  store ptr getelementptr inbounds nuw inrange(-16, 56) (i8, ptr @_ZTVN5faiss12_GLOBAL__N_19FlatL2DisE, i64 16), ptr %5, align 8, !tbaa !4
  %12 = getelementptr inbounds nuw i8, ptr %5, i64 24
  %13 = getelementptr inbounds nuw i8, ptr %0, i64 8
  %14 = load i32, ptr %13, align 8, !tbaa !36
  %15 = sext i32 %14 to i64
  store i64 %15, ptr %12, align 8, !tbaa !53
  %16 = getelementptr inbounds nuw i8, ptr %5, i64 32
  %17 = getelementptr inbounds nuw i8, ptr %0, i64 16
  %18 = load i64, ptr %17, align 8, !tbaa !37
  store i64 %18, ptr %16, align 8, !tbaa !55
  %19 = getelementptr inbounds nuw i8, ptr %5, i64 40
  store ptr null, ptr %19, align 8, !tbaa !56
  %20 = getelementptr inbounds nuw i8, ptr %5, i64 48
  store ptr %7, ptr %20, align 8, !tbaa !57
  %21 = getelementptr inbounds nuw i8, ptr %5, i64 56
  store i64 0, ptr %21, align 8, !tbaa !58
  br label %51

22:                                               ; preds = %1
  %23 = tail call noalias noundef nonnull dereferenceable(64) ptr @_Znwm(i64 noundef 64) #27
  %24 = getelementptr inbounds nuw i8, ptr %0, i64 48
  %25 = load ptr, ptr %24, align 8, !tbaa !7
  %26 = getelementptr inbounds nuw i8, ptr %0, i64 40
  %27 = load i64, ptr %26, align 8, !tbaa !44
  %28 = getelementptr inbounds nuw i8, ptr %23, i64 8
  store ptr %25, ptr %28, align 8, !tbaa !49
  %29 = getelementptr inbounds nuw i8, ptr %23, i64 16
  store i64 %27, ptr %29, align 8, !tbaa !52
  store ptr getelementptr inbounds nuw inrange(-16, 56) (i8, ptr @_ZTVN5faiss12_GLOBAL__N_19FlatIPDisE, i64 16), ptr %23, align 8, !tbaa !4
  %30 = getelementptr inbounds nuw i8, ptr %23, i64 24
  %31 = getelementptr inbounds nuw i8, ptr %0, i64 8
  %32 = load i32, ptr %31, align 8, !tbaa !36
  %33 = sext i32 %32 to i64
  store i64 %33, ptr %30, align 8, !tbaa !59
  %34 = getelementptr inbounds nuw i8, ptr %23, i64 32
  %35 = getelementptr inbounds nuw i8, ptr %0, i64 16
  %36 = load i64, ptr %35, align 8, !tbaa !37
  store i64 %36, ptr %34, align 8, !tbaa !61
  %37 = getelementptr inbounds nuw i8, ptr %23, i64 40
  store ptr null, ptr %37, align 8, !tbaa !62
  %38 = getelementptr inbounds nuw i8, ptr %23, i64 48
  store ptr %25, ptr %38, align 8, !tbaa !63
  %39 = getelementptr inbounds nuw i8, ptr %23, i64 56
  store i64 0, ptr %39, align 8, !tbaa !64
  br label %51

40:                                               ; preds = %1
  %41 = getelementptr inbounds nuw i8, ptr %0, i64 8
  %42 = load i32, ptr %41, align 8, !tbaa !36
  %43 = sext i32 %42 to i64
  %44 = getelementptr inbounds nuw i8, ptr %0, i64 32
  %45 = load float, ptr %44, align 8, !tbaa !43
  %46 = getelementptr inbounds nuw i8, ptr %0, i64 16
  %47 = load i64, ptr %46, align 8, !tbaa !37
  %48 = getelementptr inbounds nuw i8, ptr %0, i64 48
  %49 = load ptr, ptr %48, align 8, !tbaa !7
  %50 = tail call noundef ptr @_ZN5faiss27get_extra_distance_computerEmNS_10MetricTypeEfmPKf(i64 noundef %43, i32 noundef %3, float noundef %45, i64 noundef %47, ptr noundef %49)
  br label %51

51:                                               ; preds = %4, %40, %22
  %.0 = phi ptr [ %23, %22 ], [ %50, %40 ], [ %5, %4 ]
  ret ptr %.0
}